target datalayout = "e-m:e-p270:32:32-p271:32:32-p272:64:64-i64:64-i128:128-f80:128-n8:16:32:64-S128"
target triple = "x86_64-pc-linux-gnu"

%struct._zval_struct = type { %union._zend_value, %union.anon.4, %union.anon.7 }
%union._zend_value = type { i64 }
%union.anon.4 = type { i32 }
%union.anon.7 = type { i32 }
%struct._phpdbg_breakopline_t = type { i32, i8, i64, i8, ptr, i64, ptr, i64, i64, i64 }

; Function Attrs: nounwind uwtable
define internal void @phpdbg_opline_breaks_dtor(ptr noundef %0) #0 {
  %2 = alloca ptr, align 8
  %3 = alloca ptr, align 8
  store ptr %0, ptr %2, align 8
  %4 = load ptr, ptr %2, align 8
  %5 = getelementptr inbounds %struct._zval_struct, ptr %4, i32 0, i32 0
  %6 = load ptr, ptr %5, align 8
  store ptr %6, ptr %3, align 8
  %7 = load ptr, ptr %3, align 8
  %8 = getelementptr inbounds %struct._phpdbg_breakopline_t, ptr %7, i32 0, i32 6
  %9 = load ptr, ptr %8, align 8
  %10 = icmp ne ptr %9, null
  br i1 %10, label %11, label %15

11:                                               ; preds = %1
  %12 = load ptr, ptr %3, align 8
  %13 = getelementptr inbounds %struct._phpdbg_breakopline_t, ptr %12, i32 0, i32 6
  %14 = load ptr, ptr %13, align 8
  call void @_efree(ptr noundef %14)
  br label %15

15:                                               ; preds = %11, %1
  %16 = load ptr, ptr %3, align 8
  %17 = getelementptr inbounds %struct._phpdbg_breakopline_t, ptr %16, i32 0, i32 4
  %18 = load ptr, ptr %17, align 8
  %19 = icmp ne ptr %18, null
  br i1 %19, label %20, label %24

20:                                               ; preds = %15
  %21 = load ptr, ptr %3, align 8
  %22 = getelementptr inbounds %struct._phpdbg_breakopline_t, ptr %21, i32 0, i32 4
  %23 = load ptr, ptr %22, align 8
  call void @_efree(ptr noundef %23)
  br label %24

24:                                               ; preds = %20, %15
  %25 = load ptr, ptr %3, align 8
  call void @_efree(ptr noundef %25)
  ret void
}