; Function Attrs: nounwind uwtable
define internal void @phpdbg_opline_breaks_dtor(ptr nocapture noundef readonly %0) #1 {
  %2 = load ptr, ptr %0, align 8
  %3 = getelementptr inbounds i8, ptr %2, i64 40
  %4 = load ptr, ptr %3, align 8
  %.not = icmp eq ptr %4, null
  br i1 %.not, label %6, label %5

5:                                                ; preds = %1
  tail call void @_efree(ptr noundef nonnull %4) #14
  br label %6

6:                                                ; preds = %5, %1
  %7 = getelementptr inbounds i8, ptr %2, i64 24
  %8 = load ptr, ptr %7, align 8
  %.not7 = icmp eq ptr %8, null
  br i1 %.not7, label %10, label %9

9:                                                ; preds = %6
  tail call void @_efree(ptr noundef nonnull %8) #14
  br label %10

10:                                               ; preds = %9, %6
  tail call void @_efree(ptr noundef nonnull %2) #14
  ret void
}